; Function Attrs: nofree norecurse nosync nounwind memory(readwrite, inaccessiblemem: none) uwtable
define void @Gia_ManMarkFanoutDrivers(ptr noundef readonly captures(none) %0) local_unnamed_addr #1 {
  %2 = getelementptr i8, ptr %0, i64 32
  %3 = getelementptr inbounds nuw i8, ptr %0, i64 24
  %4 = load i32, ptr %3, align 8
  %5 = icmp sgt i32 %4, 0
  br i1 %5, label %.lr.ph, label %.critedge

.lr.ph:                                           ; preds = %1, %26
  %indvars.iv = phi i64 [ %indvars.iv.next, %26 ], [ 0, %1 ]
  %.val = load ptr, ptr %2, align 8
  %6 = getelementptr inbounds nuw %struct.Gia_Obj_t_, ptr %.val, i64 %indvars.iv
  %.not = icmp eq ptr %.val, null
  br i1 %.not, label %.critedge, label %7

7:                                                ; preds = %.lr.ph
  %8 = load i64, ptr %6, align 4
  %9 = and i64 %8, -1073741825
  store i64 %9, ptr %6, align 4
  %10 = and i64 %8, 2147483648
  %.not.i = icmp eq i64 %10, 0
  %11 = and i64 %8, 536870911
  %12 = icmp ne i64 %11, 536870911
  %narrow.i = and i1 %.not.i, %12
  br i1 %narrow.i, label %13, label %21

13:                                               ; preds = %7
  %14 = sub nsw i64 0, %11
  %15 = getelementptr inbounds %struct.Gia_Obj_t_, ptr %6, i64 %14
  %16 = load i64, ptr %15, align 4
  %17 = or i64 %16, 1073741824
  store i64 %17, ptr %15, align 4
  %18 = load i64, ptr %6, align 4
  %19 = lshr i64 %18, 32
  %20 = and i64 %19, 536870911
  br label %.sink.split

21:                                               ; preds = %7
  %.not.i15 = icmp ne i64 %10, 0
  %narrow.i16 = and i1 %.not.i15, %12
  br i1 %narrow.i16, label %.sink.split, label %26

.sink.split:                                      ; preds = %21, %13
  %.sink = phi i64 [ %20, %13 ], [ %11, %21 ]
  %22 = sub nsw i64 0, %.sink
  %23 = getelementptr inbounds %struct.Gia_Obj_t_, ptr %6, i64 %22
  %24 = load i64, ptr %23, align 4
  %25 = or i64 %24, 1073741824
  store i64 %25, ptr %23, align 4
  br label %26

26:                                               ; preds = %.sink.split, %21
  %indvars.iv.next = add nuw nsw i64 %indvars.iv, 1
  %27 = load i32, ptr %3, align 8
  %28 = sext i32 %27 to i64
  %29 = icmp slt i64 %indvars.iv.next, %28
  br i1 %29, label %.lr.ph, label %.critedge, !llvm.loop !65

.critedge:                                        ; preds = %.lr.ph, %26, %1
  ret void
}